; Function Attrs: mustprogress nofree norecurse nosync nounwind willreturn memory(argmem: read) uwtable
define noundef zeroext i1 @_ZNK32pxrInternal_v0_24__pxrReserved__18TsTest_SampleTimes10SampleTimeeqERKS1_(ptr nocapture noundef nonnull readonly align 8 dereferenceable(9) %0, ptr nocapture noundef nonnull readonly align 8 dereferenceable(9) %1) local_unnamed_addr #4 align 2 {
  %3 = load double, ptr %0, align 8
  %4 = load double, ptr %1, align 8
  %5 = fcmp oeq double %3, %4
  br i1 %5, label %6, label %14

6:                                                ; preds = %2
  %7 = getelementptr inbounds nuw i8, ptr %0, i64 8
  %8 = load i8, ptr %7, align 8
  %9 = getelementptr inbounds nuw i8, ptr %1, i64 8
  %10 = load i8, ptr %9, align 8
  %11 = xor i8 %10, %8
  %12 = and i8 %11, 1
  %13 = icmp eq i8 %12, 0
  br label %14

14:                                               ; preds = %6, %2
  %15 = phi i1 [ false, %2 ], [ %13, %6 ]
  ret i1 %15
}